target datalayout = "e-m:e-p270:32:32-p271:32:32-p272:64:64-i64:64-i128:128-f80:128-n8:16:32:64-S128"
target triple = "x86_64-pc-linux-gnu"

%class.State = type { [315 x i32], [315 x i16], i32, ptr, [2 x ptr] }

@UseAVX = external global i32, align 4

; Function Attrs: mustprogress nounwind uwtable
define hidden void @_ZN5State13_sub_Op_MulVBEPK4Node(ptr noundef nonnull align 8 dereferenceable(1920) %0, ptr noundef %1) #1 align 2 {
  %3 = alloca ptr, align 8
  %4 = alloca ptr, align 8
  %5 = alloca i32, align 4
  %6 = alloca i32, align 4
  %7 = alloca i32, align 4
  store ptr %0, ptr %3, align 8
  store ptr %1, ptr %4, align 8
  %8 = load ptr, ptr %3, align 8
  %9 = getelementptr inbounds %class.State, ptr %8, i32 0, i32 4
  %10 = getelementptr inbounds [2 x ptr], ptr %9, i64 0, i64 0
  %11 = load ptr, ptr %10, align 8
  %12 = icmp ne ptr %11, null
  br i1 %12, label %13, label %71

13:                                               ; preds = %2
  %14 = getelementptr inbounds %class.State, ptr %8, i32 0, i32 4
  %15 = getelementptr inbounds [2 x ptr], ptr %14, i64 0, i64 0
  %16 = load ptr, ptr %15, align 8
  %17 = getelementptr inbounds %class.State, ptr %16, i32 0, i32 1
  %18 = getelementptr inbounds [315 x i16], ptr %17, i64 0, i64 114
  %19 = load i16, ptr %18, align 4
  %20 = zext i16 %19 to i32
  %21 = and i32 %20, 1
  %22 = icmp ne i32 %21, 0
  br i1 %22, label %23, label %71

23:                                               ; preds = %13
  %24 = getelementptr inbounds %class.State, ptr %8, i32 0, i32 4
  %25 = getelementptr inbounds [2 x ptr], ptr %24, i64 0, i64 1
  %26 = load ptr, ptr %25, align 8
  %27 = icmp ne ptr %26, null
  br i1 %27, label %28, label %71

28:                                               ; preds = %23
  %29 = getelementptr inbounds %class.State, ptr %8, i32 0, i32 4
  %30 = getelementptr inbounds [2 x ptr], ptr %29, i64 0, i64 1
  %31 = load ptr, ptr %30, align 8
  %32 = getelementptr inbounds %class.State, ptr %31, i32 0, i32 1
  %33 = getelementptr inbounds [315 x i16], ptr %32, i64 0, i64 114
  %34 = load i16, ptr %33, align 4
  %35 = zext i16 %34 to i32
  %36 = and i32 %35, 1
  %37 = icmp ne i32 %36, 0
  br i1 %37, label %38, label %71

38:                                               ; preds = %28
  %39 = load i32, ptr @UseAVX, align 4
  %40 = icmp sgt i32 %39, 0
  br i1 %40, label %41, label %71

41:                                               ; preds = %38
  %42 = load ptr, ptr %4, align 8
  %43 = call noundef i32 @_ZN7Matcher22vector_length_in_bytesEPK4Node(ptr noundef %42)
  %44 = icmp ugt i32 %43, 8
  br i1 %44, label %45, label %71

45:                                               ; preds = %41
  %46 = getelementptr inbounds %class.State, ptr %8, i32 0, i32 4
  %47 = getelementptr inbounds [2 x ptr], ptr %46, i64 0, i64 0
  %48 = load ptr, ptr %47, align 8
  %49 = getelementptr inbounds %class.State, ptr %48, i32 0, i32 0
  %50 = getelementptr inbounds [315 x i32], ptr %49, i64 0, i64 114
  %51 = load i32, ptr %50, align 8
  %52 = getelementptr inbounds %class.State, ptr %8, i32 0, i32 4
  %53 = getelementptr inbounds [2 x ptr], ptr %52, i64 0, i64 1
  %54 = load ptr, ptr %53, align 8
  %55 = getelementptr inbounds %class.State, ptr %54, i32 0, i32 0
  %56 = getelementptr inbounds [315 x i32], ptr %55, i64 0, i64 114
  %57 = load i32, ptr %56, align 8
  %58 = add i32 %51, %57
  %59 = add i32 %58, 100
  store i32 %59, ptr %5, align 4
  %60 = load i32, ptr %5, align 4
  %61 = getelementptr inbounds %class.State, ptr %8, i32 0, i32 0
  %62 = getelementptr inbounds [315 x i32], ptr %61, i64 0, i64 114
  store i32 %60, ptr %62, align 8
  %63 = getelementptr inbounds %class.State, ptr %8, i32 0, i32 1
  %64 = getelementptr inbounds [315 x i16], ptr %63, i64 0, i64 114
  store i16 2619, ptr %64, align 4
  %65 = load i32, ptr %5, align 4
  %66 = add i32 %65, 100
  %67 = getelementptr inbounds %class.State, ptr %8, i32 0, i32 0
  %68 = getelementptr inbounds [315 x i32], ptr %67, i64 0, i64 115
  store i32 %66, ptr %68, align 4
  %69 = getelementptr inbounds %class.State, ptr %8, i32 0, i32 1
  %70 = getelementptr inbounds [315 x i16], ptr %69, i64 0, i64 115
  store i16 731, ptr %70, align 2
  br label %71

71:                                               ; preds = %45, %41, %38, %28, %23, %13, %2
  %72 = getelementptr inbounds %class.State, ptr %8, i32 0, i32 4
  %73 = getelementptr inbounds [2 x ptr], ptr %72, i64 0, i64 0
  %74 = load ptr, ptr %73, align 8
  %75 = icmp ne ptr %74, null
  br i1 %75, label %76, label %163

76:                                               ; preds = %71
  %77 = getelementptr inbounds %class.State, ptr %8, i32 0, i32 4
  %78 = getelementptr inbounds [2 x ptr], ptr %77, i64 0, i64 0
  %79 = load ptr, ptr %78, align 8
  %80 = getelementptr inbounds %class.State, ptr %79, i32 0, i32 1
  %81 = getelementptr inbounds [315 x i16], ptr %80, i64 0, i64 114
  %82 = load i16, ptr %81, align 4
  %83 = zext i16 %82 to i32
  %84 = and i32 %83, 1
  %85 = icmp ne i32 %84, 0
  br i1 %85, label %86, label %163

86:                                               ; preds = %76
  %87 = getelementptr inbounds %class.State, ptr %8, i32 0, i32 4
  %88 = getelementptr inbounds [2 x ptr], ptr %87, i64 0, i64 1
  %89 = load ptr, ptr %88, align 8
  %90 = icmp ne ptr %89, null
  br i1 %90, label %91, label %163

91:                                               ; preds = %86
  %92 = getelementptr inbounds %class.State, ptr %8, i32 0, i32 4
  %93 = getelementptr inbounds [2 x ptr], ptr %92, i64 0, i64 1
  %94 = load ptr, ptr %93, align 8
  %95 = getelementptr inbounds %class.State, ptr %94, i32 0, i32 1
  %96 = getelementptr inbounds [315 x i16], ptr %95, i64 0, i64 114
  %97 = load i16, ptr %96, align 4
  %98 = zext i16 %97 to i32
  %99 = and i32 %98, 1
  %100 = icmp ne i32 %99, 0
  br i1 %100, label %101, label %163

101:                                              ; preds = %91
  %102 = load i32, ptr @UseAVX, align 4
  %103 = icmp eq i32 %102, 0
  br i1 %103, label %104, label %163

104:                                              ; preds = %101
  %105 = load ptr, ptr %4, align 8
  %106 = call noundef i32 @_ZN7Matcher22vector_length_in_bytesEPK4Node(ptr noundef %105)
  %107 = icmp ugt i32 %106, 8
  br i1 %107, label %108, label %163

108:                                              ; preds = %104
  %109 = getelementptr inbounds %class.State, ptr %8, i32 0, i32 4
  %110 = getelementptr inbounds [2 x ptr], ptr %109, i64 0, i64 0
  %111 = load ptr, ptr %110, align 8
  %112 = getelementptr inbounds %class.State, ptr %111, i32 0, i32 0
  %113 = getelementptr inbounds [315 x i32], ptr %112, i64 0, i64 114
  %114 = load i32, ptr %113, align 8
  %115 = getelementptr inbounds %class.State, ptr %8, i32 0, i32 4
  %116 = getelementptr inbounds [2 x ptr], ptr %115, i64 0, i64 1
  %117 = load ptr, ptr %116, align 8
  %118 = getelementptr inbounds %class.State, ptr %117, i32 0, i32 0
  %119 = getelementptr inbounds [315 x i32], ptr %118, i64 0, i64 114
  %120 = load i32, ptr %119, align 8
  %121 = add i32 %114, %120
  %122 = add i32 %121, 100
  store i32 %122, ptr %6, align 4
  %123 = getelementptr inbounds %class.State, ptr %8, i32 0, i32 1
  %124 = getelementptr inbounds [315 x i16], ptr %123, i64 0, i64 114
  %125 = load i16, ptr %124, align 4
  %126 = zext i16 %125 to i32
  %127 = and i32 %126, 1
  %128 = icmp eq i32 %127, 0
  br i1 %128, label %135, label %129

129:                                              ; preds = %108
  %130 = getelementptr inbounds %class.State, ptr %8, i32 0, i32 0
  %131 = getelementptr inbounds [315 x i32], ptr %130, i64 0, i64 114
  %132 = load i32, ptr %131, align 8
  %133 = load i32, ptr %6, align 4
  %134 = icmp ugt i32 %132, %133
  br i1 %134, label %135, label %141

135:                                              ; preds = %129, %108
  %136 = load i32, ptr %6, align 4
  %137 = getelementptr inbounds %class.State, ptr %8, i32 0, i32 0
  %138 = getelementptr inbounds [315 x i32], ptr %137, i64 0, i64 114
  store i32 %136, ptr %138, align 8
  %139 = getelementptr inbounds %class.State, ptr %8, i32 0, i32 1
  %140 = getelementptr inbounds [315 x i16], ptr %139, i64 0, i64 114
  store i16 2617, ptr %140, align 4
  br label %141

141:                                              ; preds = %135, %129
  %142 = getelementptr inbounds %class.State, ptr %8, i32 0, i32 1
  %143 = getelementptr inbounds [315 x i16], ptr %142, i64 0, i64 115
  %144 = load i16, ptr %143, align 2
  %145 = zext i16 %144 to i32
  %146 = and i32 %145, 1
  %147 = icmp eq i32 %146, 0
  br i1 %147, label %155, label %148

148:                                              ; preds = %141
  %149 = getelementptr inbounds %class.State, ptr %8, i32 0, i32 0
  %150 = getelementptr inbounds [315 x i32], ptr %149, i64 0, i64 115
  %151 = load i32, ptr %150, align 4
  %152 = load i32, ptr %6, align 4
  %153 = add i32 %152, 100
  %154 = icmp ugt i32 %151, %153
  br i1 %154, label %155, label %162

155:                                              ; preds = %148, %141
  %156 = load i32, ptr %6, align 4
  %157 = add i32 %156, 100
  %158 = getelementptr inbounds %class.State, ptr %8, i32 0, i32 0
  %159 = getelementptr inbounds [315 x i32], ptr %158, i64 0, i64 115
  store i32 %157, ptr %159, align 4
  %160 = getelementptr inbounds %class.State, ptr %8, i32 0, i32 1
  %161 = getelementptr inbounds [315 x i16], ptr %160, i64 0, i64 115
  store i16 731, ptr %161, align 2
  br label %162

162:                                              ; preds = %155, %148
  br label %163

163:                                              ; preds = %162, %104, %101, %91, %86, %76, %71
  %164 = getelementptr inbounds %class.State, ptr %8, i32 0, i32 4
  %165 = getelementptr inbounds [2 x ptr], ptr %164, i64 0, i64 0
  %166 = load ptr, ptr %165, align 8
  %167 = icmp ne ptr %166, null
  br i1 %167, label %168, label %252

168:                                              ; preds = %163
  %169 = getelementptr inbounds %class.State, ptr %8, i32 0, i32 4
  %170 = getelementptr inbounds [2 x ptr], ptr %169, i64 0, i64 0
  %171 = load ptr, ptr %170, align 8
  %172 = getelementptr inbounds %class.State, ptr %171, i32 0, i32 1
  %173 = getelementptr inbounds [315 x i16], ptr %172, i64 0, i64 114
  %174 = load i16, ptr %173, align 4
  %175 = zext i16 %174 to i32
  %176 = and i32 %175, 1
  %177 = icmp ne i32 %176, 0
  br i1 %177, label %178, label %252

178:                                              ; preds = %168
  %179 = getelementptr inbounds %class.State, ptr %8, i32 0, i32 4
  %180 = getelementptr inbounds [2 x ptr], ptr %179, i64 0, i64 1
  %181 = load ptr, ptr %180, align 8
  %182 = icmp ne ptr %181, null
  br i1 %182, label %183, label %252

183:                                              ; preds = %178
  %184 = getelementptr inbounds %class.State, ptr %8, i32 0, i32 4
  %185 = getelementptr inbounds [2 x ptr], ptr %184, i64 0, i64 1
  %186 = load ptr, ptr %185, align 8
  %187 = getelementptr inbounds %class.State, ptr %186, i32 0, i32 1
  %188 = getelementptr inbounds [315 x i16], ptr %187, i64 0, i64 114
  %189 = load i16, ptr %188, align 4
  %190 = zext i16 %189 to i32
  %191 = and i32 %190, 1
  %192 = icmp ne i32 %191, 0
  br i1 %192, label %193, label %252

193:                                              ; preds = %183
  %194 = load ptr, ptr %4, align 8
  %195 = call noundef i32 @_ZN7Matcher22vector_length_in_bytesEPK4Node(ptr noundef %194)
  %196 = icmp ule i32 %195, 8
  br i1 %196, label %197, label %252

197:                                              ; preds = %193
  %198 = getelementptr inbounds %class.State, ptr %8, i32 0, i32 4
  %199 = getelementptr inbounds [2 x ptr], ptr %198, i64 0, i64 0
  %200 = load ptr, ptr %199, align 8
  %201 = getelementptr inbounds %class.State, ptr %200, i32 0, i32 0
  %202 = getelementptr inbounds [315 x i32], ptr %201, i64 0, i64 114
  %203 = load i32, ptr %202, align 8
  %204 = getelementptr inbounds %class.State, ptr %8, i32 0, i32 4
  %205 = getelementptr inbounds [2 x ptr], ptr %204, i64 0, i64 1
  %206 = load ptr, ptr %205, align 8
  %207 = getelementptr inbounds %class.State, ptr %206, i32 0, i32 0
  %208 = getelementptr inbounds [315 x i32], ptr %207, i64 0, i64 114
  %209 = load i32, ptr %208, align 8
  %210 = add i32 %203, %209
  %211 = add i32 %210, 100
  store i32 %211, ptr %7, align 4
  %212 = getelementptr inbounds %class.State, ptr %8, i32 0, i32 1
  %213 = getelementptr inbounds [315 x i16], ptr %212, i64 0, i64 114
  %214 = load i16, ptr %213, align 4
  %215 = zext i16 %214 to i32
  %216 = and i32 %215, 1
  %217 = icmp eq i32 %216, 0
  br i1 %217, label %224, label %218

218:                                              ; preds = %197
  %219 = getelementptr inbounds %class.State, ptr %8, i32 0, i32 0
  %220 = getelementptr inbounds [315 x i32], ptr %219, i64 0, i64 114
  %221 = load i32, ptr %220, align 8
  %222 = load i32, ptr %7, align 4
  %223 = icmp ugt i32 %221, %222
  br i1 %223, label %224, label %230

224:                                              ; preds = %218, %197
  %225 = load i32, ptr %7, align 4
  %226 = getelementptr inbounds %class.State, ptr %8, i32 0, i32 0
  %227 = getelementptr inbounds [315 x i32], ptr %226, i64 0, i64 114
  store i32 %225, ptr %227, align 8
  %228 = getelementptr inbounds %class.State, ptr %8, i32 0, i32 1
  %229 = getelementptr inbounds [315 x i16], ptr %228, i64 0, i64 114
  store i16 2615, ptr %229, align 4
  br label %230

230:                                              ; preds = %224, %218
  %231 = getelementptr inbounds %class.State, ptr %8, i32 0, i32 1
  %232 = getelementptr inbounds [315 x i16], ptr %231, i64 0, i64 115
  %233 = load i16, ptr %232, align 2
  %234 = zext i16 %233 to i32
  %235 = and i32 %234, 1
  %236 = icmp eq i32 %235, 0
  br i1 %236, label %244, label %237

237:                                              ; preds = %230
  %238 = getelementptr inbounds %class.State, ptr %8, i32 0, i32 0
  %239 = getelementptr inbounds [315 x i32], ptr %238, i64 0, i64 115
  %240 = load i32, ptr %239, align 4
  %241 = load i32, ptr %7, align 4
  %242 = add i32 %241, 100
  %243 = icmp ugt i32 %240, %242
  br i1 %243, label %244, label %251

244:                                              ; preds = %237, %230
  %245 = load i32, ptr %7, align 4
  %246 = add i32 %245, 100
  %247 = getelementptr inbounds %class.State, ptr %8, i32 0, i32 0
  %248 = getelementptr inbounds [315 x i32], ptr %247, i64 0, i64 115
  store i32 %246, ptr %248, align 4
  %249 = getelementptr inbounds %class.State, ptr %8, i32 0, i32 1
  %250 = getelementptr inbounds [315 x i16], ptr %249, i64 0, i64 115
  store i16 731, ptr %250, align 2
  br label %251

251:                                              ; preds = %244, %237
  br label %252

252:                                              ; preds = %251, %193, %183, %178, %168, %163
  ret void
}