; Function Attrs: mustprogress nounwind uwtable
define hidden void @_ZN5State13_sub_Op_MulVBEPK4Node(ptr nocapture noundef nonnull align 8 dereferenceable(1920) %0, ptr noundef %1) local_unnamed_addr #2 align 2 {
  %3 = getelementptr inbounds i8, ptr %0, i64 1904
  %4 = load ptr, ptr %3, align 8
  %.not = icmp eq ptr %4, null
  br i1 %.not, label %.thread39, label %5

5:                                                ; preds = %2
  %6 = getelementptr inbounds i8, ptr %4, i64 1488
  %7 = load i16, ptr %6, align 4
  %8 = and i16 %7, 1
  %.not21 = icmp eq i16 %8, 0
  br i1 %.not21, label %.thread, label %9

9:                                                ; preds = %5
  %10 = getelementptr inbounds i8, ptr %0, i64 1912
  %11 = load ptr, ptr %10, align 8
  %.not22 = icmp eq ptr %11, null
  br i1 %.not22, label %.thread, label %12

12:                                               ; preds = %9
  %13 = getelementptr inbounds i8, ptr %11, i64 1488
  %14 = load i16, ptr %13, align 4
  %15 = and i16 %14, 1
  %16 = icmp ne i16 %15, 0
  %17 = load i32, ptr @UseAVX, align 4
  %18 = icmp sgt i32 %17, 0
  %or.cond = select i1 %16, i1 %18, i1 false
  br i1 %or.cond, label %19, label %.thread

19:                                               ; preds = %12
  %20 = tail call noundef i32 @_ZN7Matcher22vector_length_in_bytesEPK4Node(ptr noundef %1) #9
  %21 = icmp ugt i32 %20, 8
  %.pr.pre = load ptr, ptr %3, align 8
  br i1 %21, label %22, label %35

22:                                               ; preds = %19
  %23 = getelementptr inbounds i8, ptr %.pr.pre, i64 456
  %24 = load i32, ptr %23, align 8
  %25 = load ptr, ptr %10, align 8
  %26 = getelementptr inbounds i8, ptr %25, i64 456
  %27 = load i32, ptr %26, align 8
  %28 = add i32 %27, %24
  %29 = add i32 %28, 100
  %30 = getelementptr inbounds i8, ptr %0, i64 456
  store i32 %29, ptr %30, align 8
  %31 = getelementptr inbounds i8, ptr %0, i64 1488
  store i16 2619, ptr %31, align 8
  %32 = add i32 %28, 200
  %33 = getelementptr inbounds i8, ptr %0, i64 460
  store i32 %32, ptr %33, align 4
  %34 = getelementptr inbounds i8, ptr %0, i64 1490
  store i16 731, ptr %34, align 2
  br label %.thread

35:                                               ; preds = %19
  %.not23 = icmp eq ptr %.pr.pre, null
  br i1 %.not23, label %.thread39, label %.thread

.thread:                                          ; preds = %5, %9, %12, %22, %35
  %.pr48 = phi ptr [ %.pr.pre, %35 ], [ %4, %5 ], [ %4, %9 ], [ %4, %12 ], [ %.pr.pre, %22 ]
  %36 = getelementptr inbounds i8, ptr %.pr48, i64 1488
  %37 = load i16, ptr %36, align 4
  %38 = and i16 %37, 1
  %.not24 = icmp eq i16 %38, 0
  br i1 %.not24, label %.thread50, label %39

39:                                               ; preds = %.thread
  %40 = getelementptr inbounds i8, ptr %0, i64 1912
  %41 = load ptr, ptr %40, align 8
  %.not25 = icmp eq ptr %41, null
  br i1 %.not25, label %.thread50, label %42

42:                                               ; preds = %39
  %43 = getelementptr inbounds i8, ptr %41, i64 1488
  %44 = load i16, ptr %43, align 4
  %45 = and i16 %44, 1
  %46 = icmp ne i16 %45, 0
  %47 = load i32, ptr @UseAVX, align 4
  %48 = icmp eq i32 %47, 0
  %or.cond3 = select i1 %46, i1 %48, i1 false
  br i1 %or.cond3, label %49, label %.thread50

49:                                               ; preds = %42
  %50 = tail call noundef i32 @_ZN7Matcher22vector_length_in_bytesEPK4Node(ptr noundef %1) #9
  %51 = icmp ugt i32 %50, 8
  %.pr38.pre = load ptr, ptr %3, align 8
  br i1 %51, label %52, label %80

52:                                               ; preds = %49
  %53 = getelementptr inbounds i8, ptr %.pr38.pre, i64 456
  %54 = load i32, ptr %53, align 8
  %55 = load ptr, ptr %40, align 8
  %56 = getelementptr inbounds i8, ptr %55, i64 456
  %57 = load i32, ptr %56, align 8
  %58 = add i32 %57, %54
  %59 = add i32 %58, 100
  %60 = getelementptr inbounds i8, ptr %0, i64 1488
  %61 = load i16, ptr %60, align 8
  %62 = and i16 %61, 1
  %63 = icmp eq i16 %62, 0
  %64 = getelementptr inbounds i8, ptr %0, i64 456
  %65 = load i32, ptr %64, align 8
  %66 = icmp ugt i32 %65, %59
  %or.cond32 = select i1 %63, i1 true, i1 %66
  br i1 %or.cond32, label %67, label %68

67:                                               ; preds = %52
  store i32 %59, ptr %64, align 8
  store i16 2617, ptr %60, align 8
  br label %68

68:                                               ; preds = %52, %67
  %69 = getelementptr inbounds i8, ptr %0, i64 1490
  %70 = load i16, ptr %69, align 2
  %71 = and i16 %70, 1
  %72 = icmp eq i16 %71, 0
  br i1 %72, label %._crit_edge, label %73

._crit_edge:                                      ; preds = %68
  %.pre44 = add i32 %58, 200
  br label %78

73:                                               ; preds = %68
  %74 = getelementptr inbounds i8, ptr %0, i64 460
  %75 = load i32, ptr %74, align 4
  %76 = add i32 %58, 200
  %77 = icmp ugt i32 %75, %76
  br i1 %77, label %78, label %.thread50

78:                                               ; preds = %._crit_edge, %73
  %.pre-phi45 = phi i32 [ %.pre44, %._crit_edge ], [ %76, %73 ]
  %79 = getelementptr inbounds i8, ptr %0, i64 460
  store i32 %.pre-phi45, ptr %79, align 4
  store i16 731, ptr %69, align 2
  br label %.thread50

80:                                               ; preds = %49
  %.not26 = icmp eq ptr %.pr38.pre, null
  br i1 %.not26, label %.thread39, label %.thread50

.thread50:                                        ; preds = %.thread, %39, %42, %78, %73, %80
  %.pr3853 = phi ptr [ %.pr38.pre, %80 ], [ %.pr48, %.thread ], [ %.pr48, %39 ], [ %.pr48, %42 ], [ %.pr38.pre, %78 ], [ %.pr38.pre, %73 ]
  %81 = getelementptr inbounds i8, ptr %.pr3853, i64 1488
  %82 = load i16, ptr %81, align 4
  %83 = and i16 %82, 1
  %.not27 = icmp eq i16 %83, 0
  br i1 %.not27, label %.thread39, label %84

84:                                               ; preds = %.thread50
  %85 = getelementptr inbounds i8, ptr %0, i64 1912
  %86 = load ptr, ptr %85, align 8
  %.not28 = icmp eq ptr %86, null
  br i1 %.not28, label %.thread39, label %87

87:                                               ; preds = %84
  %88 = getelementptr inbounds i8, ptr %86, i64 1488
  %89 = load i16, ptr %88, align 4
  %90 = and i16 %89, 1
  %.not29 = icmp eq i16 %90, 0
  br i1 %.not29, label %.thread39, label %91

91:                                               ; preds = %87
  %92 = tail call noundef i32 @_ZN7Matcher22vector_length_in_bytesEPK4Node(ptr noundef %1) #9
  %93 = icmp ult i32 %92, 9
  br i1 %93, label %94, label %.thread39

94:                                               ; preds = %91
  %95 = load ptr, ptr %3, align 8
  %96 = getelementptr inbounds i8, ptr %95, i64 456
  %97 = load i32, ptr %96, align 8
  %98 = load ptr, ptr %85, align 8
  %99 = getelementptr inbounds i8, ptr %98, i64 456
  %100 = load i32, ptr %99, align 8
  %101 = add i32 %100, %97
  %102 = add i32 %101, 100
  %103 = getelementptr inbounds i8, ptr %0, i64 1488
  %104 = load i16, ptr %103, align 8
  %105 = and i16 %104, 1
  %106 = icmp eq i16 %105, 0
  %107 = getelementptr inbounds i8, ptr %0, i64 456
  %108 = load i32, ptr %107, align 8
  %109 = icmp ugt i32 %108, %102
  %or.cond35 = select i1 %106, i1 true, i1 %109
  br i1 %or.cond35, label %110, label %111

110:                                              ; preds = %94
  store i32 %102, ptr %107, align 8
  store i16 2615, ptr %103, align 8
  br label %111

111:                                              ; preds = %94, %110
  %112 = getelementptr inbounds i8, ptr %0, i64 1490
  %113 = load i16, ptr %112, align 2
  %114 = and i16 %113, 1
  %115 = icmp eq i16 %114, 0
  br i1 %115, label %._crit_edge43, label %116

._crit_edge43:                                    ; preds = %111
  %.pre = add i32 %101, 200
  br label %121

116:                                              ; preds = %111
  %117 = getelementptr inbounds i8, ptr %0, i64 460
  %118 = load i32, ptr %117, align 4
  %119 = add i32 %101, 200
  %120 = icmp ugt i32 %118, %119
  br i1 %120, label %121, label %.thread39

121:                                              ; preds = %._crit_edge43, %116
  %.pre-phi = phi i32 [ %.pre, %._crit_edge43 ], [ %119, %116 ]
  %122 = getelementptr inbounds i8, ptr %0, i64 460
  store i32 %.pre-phi, ptr %122, align 4
  store i16 731, ptr %112, align 2
  br label %.thread39

.thread39:                                        ; preds = %2, %35, %116, %121, %91, %87, %84, %.thread50, %80
  ret void
}